target datalayout = "e-m:e-p270:32:32-p271:32:32-p272:64:64-i64:64-i128:128-f80:128-n8:16:32:64-S128"
target triple = "x86_64-pc-linux-gnu"

%struct._zval_struct = type { %union._zend_value, %union.anon.3, %union.anon.6 }
%union._zend_value = type { i64 }
%union.anon.3 = type { i32 }
%union.anon.6 = type { i32 }
%struct._zend_refcounted_h = type { i32, %union.anon.1 }
%union.anon.1 = type { i32 }
%struct._zend_object = type { %struct._zend_refcounted_h, i32, i32, ptr, ptr, ptr, [1 x %struct._zval_struct] }
%struct.php_pdo_iterator = type { %struct._zend_object_iterator, i64, %struct._zval_struct }
%struct._zend_object_iterator = type { %struct._zend_object, %struct._zval_struct, ptr, i64 }

; Function Attrs: nounwind uwtable
define internal void @pdo_stmt_iter_get_key(ptr noundef %0, ptr noundef %1) #0 {
  %3 = alloca ptr, align 8
  %4 = alloca ptr, align 8
  %5 = alloca ptr, align 8
  %6 = alloca ptr, align 8
  store ptr %0, ptr %3, align 8, !tbaa !216
  store ptr %1, ptr %4, align 8, !tbaa !47
  call void @llvm.lifetime.start.p0(i64 8, ptr %5) #14
  %7 = load ptr, ptr %3, align 8, !tbaa !216
  store ptr %7, ptr %5, align 8, !tbaa !163
  %8 = load ptr, ptr %5, align 8, !tbaa !163
  %9 = getelementptr inbounds nuw %struct.php_pdo_iterator, ptr %8, i32 0, i32 1
  %10 = load i64, ptr %9, align 8, !tbaa !169
  %11 = icmp eq i64 %10, -1
  br i1 %11, label %12, label %18

12:                                               ; preds = %2
  br label %13

13:                                               ; preds = %12
  %14 = load ptr, ptr %4, align 8, !tbaa !47
  %15 = getelementptr inbounds nuw %struct._zval_struct, ptr %14, i32 0, i32 1
  store i32 1, ptr %15, align 8, !tbaa !45
  br label %16

16:                                               ; preds = %13
  br label %17

17:                                               ; preds = %16
  br label %30

18:                                               ; preds = %2
  br label %19

19:                                               ; preds = %18
  call void @llvm.lifetime.start.p0(i64 8, ptr %6) #14
  %20 = load ptr, ptr %4, align 8, !tbaa !47
  store ptr %20, ptr %6, align 8, !tbaa !47
  %21 = load ptr, ptr %5, align 8, !tbaa !163
  %22 = getelementptr inbounds nuw %struct.php_pdo_iterator, ptr %21, i32 0, i32 1
  %23 = load i64, ptr %22, align 8, !tbaa !169
  %24 = load ptr, ptr %6, align 8, !tbaa !47
  %25 = getelementptr inbounds nuw %struct._zval_struct, ptr %24, i32 0, i32 0
  store i64 %23, ptr %25, align 8, !tbaa !45
  %26 = load ptr, ptr %6, align 8, !tbaa !47
  %27 = getelementptr inbounds nuw %struct._zval_struct, ptr %26, i32 0, i32 1
  store i32 4, ptr %27, align 8, !tbaa !45
  call void @llvm.lifetime.end.p0(i64 8, ptr %6) #14
  br label %28

28:                                               ; preds = %19
  br label %29

29:                                               ; preds = %28
  br label %30

30:                                               ; preds = %29, %17
  call void @llvm.lifetime.end.p0(i64 8, ptr %5) #14
  ret void
}