; Function Attrs: mustprogress nofree norecurse nosync nounwind willreturn memory(argmem: readwrite) uwtable
define internal void @pdo_stmt_iter_get_key(ptr noundef readonly captures(none) %0, ptr noundef writeonly captures(none) initializes((8, 12)) %1) #13 {
  %3 = getelementptr inbounds nuw i8, ptr %0, i64 88
  %4 = load i64, ptr %3, align 8, !tbaa !154
  %5 = icmp eq i64 %4, -1
  br i1 %5, label %7, label %6

6:                                                ; preds = %2
  store i64 %4, ptr %1, align 8, !tbaa !37
  br label %7

7:                                                ; preds = %2, %6
  %.sink = phi i32 [ 4, %6 ], [ 1, %2 ]
  %8 = getelementptr inbounds nuw i8, ptr %1, i64 8
  store i32 %.sink, ptr %8, align 8, !tbaa !37
  ret void
}